; Function Attrs: nounwind uwtable
define ptr @l_Lean_Compiler_setInlineAttribute(ptr noundef %0, ptr noundef %1, i8 noundef zeroext %2) local_unnamed_addr #1 {
  %4 = load ptr, ptr @l_Lean_Compiler_setInlineAttribute___closed__1, align 8, !tbaa !10
  %5 = zext i8 %2 to i64
  %6 = shl nuw nsw i64 %5, 1
  %7 = or disjoint i64 %6, 1
  %8 = inttoptr i64 %7 to ptr
  %9 = tail call ptr @l_Lean_EnumAttributes_setValue___rarg(ptr noundef %4, ptr noundef %0, ptr noundef %1, ptr noundef nonnull %8) #7
  ret ptr %9
}